ccollections
OrderedDict
p1
((lp2
(lp3
S'ml100k, ids'
p4
accopy_reg
_reconstructor
p5
(cpandas.core.frame
DataFrame
p6
c__builtin__
object
p7
NtRp8
(dp9
S'_metadata'
p10
(lp11
sS'_typ'
p12
S'dataframe'
p13
sS'_data'
p14
g5
(cpandas.core.internals
BlockManager
p15
g7
NtRp16
((lp17
cpandas.indexes.base
_new_Index
p18
(cpandas.indexes.base
Index
p19
(dp20
S'data'
p21
cnumpy.core.multiarray
_reconstruct
p22
(cnumpy
ndarray
p23
(I0
tS'b'
tRp24
(I1
(I2
tcnumpy
dtype
p25
(S'O8'
I0
I1
tRp26
(I3
S'|'
NNNI-1
I-1
I63
tbI00
(lp27
S'time'
p28
aS'RMSE'
p29
atbsS'name'
p30
NstRp31
ag18
(g19
(dp32
g21
g22
(g23
(I0
tS'b'
tRp33
(I1
(I3
tg26
I00
(lp34
S'logistic'
p35
aS'fastFM'
p36
aS'libFM'
p37
atbsg30
NstRp38
a(lp39
g22
(g23
(I0
tS'b'
tRp40
(I1
(I2
I3
tg25
(S'f8'
I0
I1
tRp41
(I3
S'<'
NNNI-1
I-1
I0
tbI00
S'\x00\x00\x00\x00A\xd3\xd4?\x00\x00\x00`\xaea\x08@\x00\x00\x00@\x08\x01\x11@\xa5\xa8\x14\x05J*\xee?n\xa8\x1cx/I\xed?\x1a\xcc0\xb8\xb8A\xed?'
tba(lp42
g18
(g19
(dp43
g21
g22
(g23
(I0
tS'b'
tRp44
(I1
(I2
tg26
I00
(lp45
g28
ag29
atbsg30
NstRp46
a(dp47
S'0.14.1'
p48
(dp49
S'axes'
p50
g17
sS'blocks'
p51
(lp52
(dp53
S'mgr_locs'
p54
c__builtin__
slice
p55
(I0
I2
I1
tRp56
sS'values'
p57
g40
sasstbsbaa(lp58
S'ml100k'
p59
ag5
(g6
g7
NtRp60
(dp61
g10
(lp62
sg12
S'dataframe'
p63
sg14
g5
(g15
g7
NtRp64
((lp65
g18
(g19
(dp66
g21
g22
(g23
(I0
tS'b'
tRp67
(I1
(I2
tg25
(S'O8'
I0
I1
tRp68
(I3
S'|'
NNNI-1
I-1
I63
tbI00
(lp69
S'time'
p70
aS'RMSE'
p71
atbsg30
NstRp72
ag18
(g19
(dp73
g21
g22
(g23
(I0
tS'b'
tRp74
(I1
(I3
tg68
I00
(lp75
S'logistic'
p76
aS'fastFM'
p77
aS'libFM'
p78
atbsg30
NstRp79
a(lp80
g22
(g23
(I0
tS'b'
tRp81
(I1
(I2
I3
tg25
(S'f8'
I0
I1
tRp82
(I3
S'<'
NNNI-1
I-1
I0
tbI00
S'\x00\x00\x00\xa0\x8f\xb5\x02@\x00\x00\x00\xf0\xaeW:@\x00\x00\x00\x84E\xad?@\xf3"0X\xb5\'\xee?)?\xe2\xc5{\xb0\xec?\x98\x9ce\x7f\xf5\xa7\xec?'
tba(lp83
g18
(g19
(dp84
g21
g22
(g23
(I0
tS'b'
tRp85
(I1
(I2
tg68
I00
(lp86
g70
ag71
atbsg30
NstRp87
a(dp88
g48
(dp89
g50
g65
sg51
(lp90
(dp91
g54
g55
(I0
I2
I1
tRp92
sg57
g81
sasstbsbaatRp93
.