ccollections
OrderedDict
p1
((lp2
(lp3
S'ml100k, ids'
p4
accopy_reg
_reconstructor
p5
(cpandas.core.frame
DataFrame
p6
c__builtin__
object
p7
NtRp8
(dp9
S'_metadata'
p10
(lp11
sS'_typ'
p12
S'dataframe'
p13
sS'_data'
p14
g5
(cpandas.core.internals
BlockManager
p15
g7
NtRp16
((lp17
cpandas.indexes.base
_new_Index
p18
(cpandas.indexes.base
Index
p19
(dp20
S'data'
p21
cnumpy.core.multiarray
_reconstruct
p22
(cnumpy
ndarray
p23
(I0
tS'b'
tRp24
(I1
(I2
tcnumpy
dtype
p25
(S'O8'
I0
I1
tRp26
(I3
S'|'
NNNI-1
I-1
I63
tbI00
(lp27
S'time'
p28
aS'RMSE'
p29
atbsS'name'
p30
NstRp31
ag18
(g19
(dp32
g21
g22
(g23
(I0
tS'b'
tRp33
(I1
(I3
tg26
I00
(lp34
S'logistic'
p35
aS'fastFM'
p36
aS'libFM'
p37
atbsg30
NstRp38
a(lp39
g22
(g23
(I0
tS'b'
tRp40
(I1
(I2
I3
tg25
(S'f8'
I0
I1
tRp41
(I3
S'<'
NNNI-1
I-1
I0
tbI00
S'\x00\x00\x00\x00\xae\xee\xd3?\x00\x00\x00\x80\xf7Y\x08@\x00\x00\x00\x80\xe8b\x11@\xa6!q\x85N*\xee?n\xa8\x1cx/I\xed?\xc9\xc1\x08\x8b\xb9=\xed?'
tba(lp42
g18
(g19
(dp43
g21
g22
(g23
(I0
tS'b'
tRp44
(I1
(I2
tg26
I00
(lp45
g28
ag29
atbsg30
NstRp46
a(dp47
S'0.14.1'
p48
(dp49
S'axes'
p50
g17
sS'blocks'
p51
(lp52
(dp53
S'mgr_locs'
p54
c__builtin__
slice
p55
(I0
I2
I1
tRp56
sS'values'
p57
g40
sasstbsbaa(lp58
S'ml100k'
p59
ag5
(g6
g7
NtRp60
(dp61
g10
g11
sg12
g13
sg14
g5
(g15
g7
NtRp62
((lp63
g18
(g19
(dp64
g21
g22
(g23
(I0
tS'b'
tRp65
(I1
(I2
tg26
I00
(lp66
g28
ag29
atbsg30
NstRp67
ag18
(g19
(dp68
g21
g22
(g23
(I0
tS'b'
tRp69
(I1
(I3
tg26
I00
(lp70
g35
ag36
ag37
atbsg30
NstRp71
a(lp72
g22
(g23
(I0
tS'b'
tRp73
(I1
(I2
I3
tg41
I00
S"\x00\x00\x00 \x80\xbf\n@\x00\x00\x00\xc8~N:@\x00\x00\x00\xfcL\x12?@k\xa4\xa5\xd6\xb6'\xee?)?\xe2\xc5{\xb0\xec?5\xcb\t\xd2\xa4\xac\xec?"
tba(lp74
g18
(g19
(dp75
g21
g22
(g23
(I0
tS'b'
tRp76
(I1
(I2
tg26
I00
(lp77
g28
ag29
atbsg30
NstRp78
a(dp79
g48
(dp80
g50
g63
sg51
(lp81
(dp82
g54
g55
(I0
I2
I1
tRp83
sg57
g73
sasstbsbaatRp84
.