ccollections
OrderedDict
p1
((lp2
(lp3
S'ml100k, ids'
p4
accopy_reg
_reconstructor
p5
(cpandas.core.frame
DataFrame
p6
c__builtin__
object
p7
NtRp8
(dp9
S'_metadata'
p10
(lp11
sS'_typ'
p12
S'dataframe'
p13
sS'_data'
p14
g5
(cpandas.core.internals
BlockManager
p15
g7
NtRp16
((lp17
cpandas.indexes.base
_new_Index
p18
(cpandas.indexes.base
Index
p19
(dp20
S'data'
p21
cnumpy.core.multiarray
_reconstruct
p22
(cnumpy
ndarray
p23
(I0
tS'b'
tRp24
(I1
(I2
tcnumpy
dtype
p25
(S'O8'
I0
I1
tRp26
(I3
S'|'
NNNI-1
I-1
I63
tbI00
(lp27
S'time'
p28
aS'RMSE'
p29
atbsS'name'
p30
NstRp31
ag18
(g19
(dp32
g21
g22
(g23
(I0
tS'b'
tRp33
(I1
(I1
tg26
I00
(lp34
S'fastFM'
p35
atbsg30
NstRp36
a(lp37
g22
(g23
(I0
tS'b'
tRp38
(I1
(I2
I1
tg25
(S'f8'
I0
I1
tRp39
(I3
S'<'
NNNI-1
I-1
I0
tbI00
S'\x00\x00\x00\x00\xb9\x92\x08@n\xa8\x1cx/I\xed?'
tba(lp40
g18
(g19
(dp41
g21
g22
(g23
(I0
tS'b'
tRp42
(I1
(I2
tg26
I00
(lp43
g28
ag29
atbsg30
NstRp44
a(dp45
S'0.14.1'
p46
(dp47
S'axes'
p48
g17
sS'blocks'
p49
(lp50
(dp51
S'mgr_locs'
p52
c__builtin__
slice
p53
(I0
I2
I1
tRp54
sS'values'
p55
g38
sasstbsbaa(lp56
S'ml100k'
p57
ag5
(g6
g7
NtRp58
(dp59
g10
g11
sg12
g13
sg14
g5
(g15
g7
NtRp60
((lp61
g18
(g19
(dp62
g21
g22
(g23
(I0
tS'b'
tRp63
(I1
(I2
tg26
I00
(lp64
g28
ag29
atbsg30
NstRp65
ag18
(g19
(dp66
g21
g22
(g23
(I0
tS'b'
tRp67
(I1
(I1
tg26
I00
(lp68
g35
atbsg30
NstRp69
a(lp70
g22
(g23
(I0
tS'b'
tRp71
(I1
(I2
I1
tg39
I00
S'\x00\x00\x00\xd0e\xe27@\xebj.|:\xfc\xf2?'
tba(lp72
g18
(g19
(dp73
g21
g22
(g23
(I0
tS'b'
tRp74
(I1
(I2
tg26
I00
(lp75
g28
ag29
atbsg30
NstRp76
a(dp77
g46
(dp78
g48
g61
sg49
(lp79
(dp80
g52
g53
(I0
I2
I1
tRp81
sg55
g71
sasstbsbaatRp82
.